target datalayout = "e-m:e-p270:32:32-p271:32:32-p272:64:64-i64:64-i128:128-f80:128-n8:16:32:64-S128"
target triple = "x86_64-pc-linux-gnu"

%"class.zmq::channel_t" = type { %"class.zmq::socket_base_t.base", ptr }
%"class.zmq::socket_base_t.base" = type <{ %"class.zmq::own_t.base", [4 x i8], %"class.zmq::array_item_t.base", [4 x i8], %"struct.zmq::i_poll_events", %"struct.zmq::i_pipe_events", %"class.zmq::mutex_t", %"class.std::multimap", %"class.zmq::socket_base_t::inprocs_t", i32, i8, i8, [2 x i8], ptr, %"class.zmq::array_t", ptr, ptr, i64, i32, i8, [3 x i8], %"class.zmq::clock_t", ptr, i64, %"class.std::__cxx11::basic_string", i8, [7 x i8], ptr, %"class.zmq::mutex_t", i8 }>
%"class.zmq::own_t.base" = type <{ %"class.zmq::object_t.base", [4 x i8], %"struct.zmq::options_t", i8, [7 x i8], %"class.zmq::atomic_counter_t", i64, ptr, %"class.std::set.24", i32 }>
%"class.zmq::object_t.base" = type <{ ptr, ptr, i32 }>
%"struct.zmq::options_t" = type { i32, i32, i64, i8, [256 x i8], i32, i32, i32, i32, i32, i32, i32, i32, i8, %"struct.zmq::atomic_value_t", i32, i32, i32, i32, i32, i32, i64, i32, i32, i8, i32, i8, i8, i8, i8, i8, %"class.std::__cxx11::basic_string", %"class.std::__cxx11::basic_string", %"class.std::__cxx11::basic_string", i32, i32, i32, i32, %"class.std::vector", %"class.std::set", %"class.std::set", %"class.std::set.6", i32, i32, %"class.std::__cxx11::basic_string", %"class.std::__cxx11::basic_string", %"class.std::__cxx11::basic_string", [32 x i8], [32 x i8], [32 x i8], %"class.std::__cxx11::basic_string", %"class.std::__cxx11::basic_string", i32, i32, i8, i32, i8, i32, i8, i16, i32, i32, i32, %"class.std::__cxx11::basic_string", i8, i8, i8, i32, i32, i8, i32, %"class.std::map", i32, %"class.std::__cxx11::basic_string", %"class.std::__cxx11::basic_string", %"class.std::__cxx11::basic_string", %"class.std::__cxx11::basic_string", i8, %"class.std::vector.17", i8, %"class.std::vector.17", i8, %"class.std::vector.17", i8, i32, i8, i32, i32, i32, i32, i32, i8, i32 }
%"struct.zmq::atomic_value_t" = type { %"struct.std::atomic" }
%"struct.std::atomic" = type { %"struct.std::__atomic_base" }
%"struct.std::__atomic_base" = type { i32 }
%"class.std::vector" = type { %"struct.std::_Vector_base" }
%"struct.std::_Vector_base" = type { %"struct.std::_Vector_base<zmq::tcp_address_mask_t, std::allocator<zmq::tcp_address_mask_t>>::_Vector_impl" }
%"struct.std::_Vector_base<zmq::tcp_address_mask_t, std::allocator<zmq::tcp_address_mask_t>>::_Vector_impl" = type { %"struct.std::_Vector_base<zmq::tcp_address_mask_t, std::allocator<zmq::tcp_address_mask_t>>::_Vector_impl_data" }
%"struct.std::_Vector_base<zmq::tcp_address_mask_t, std::allocator<zmq::tcp_address_mask_t>>::_Vector_impl_data" = type { ptr, ptr, ptr }
%"class.std::set" = type { %"class.std::_Rb_tree" }
%"class.std::_Rb_tree" = type { %"struct.std::_Rb_tree<unsigned int, unsigned int, std::_Identity<unsigned int>, std::less<unsigned int>>::_Rb_tree_impl" }
%"struct.std::_Rb_tree<unsigned int, unsigned int, std::_Identity<unsigned int>, std::less<unsigned int>>::_Rb_tree_impl" = type { [8 x i8], %"struct.std::_Rb_tree_header" }
%"struct.std::_Rb_tree_header" = type { %"struct.std::_Rb_tree_node_base", i64 }
%"struct.std::_Rb_tree_node_base" = type { i32, ptr, ptr, ptr }
%"class.std::set.6" = type { %"class.std::_Rb_tree.7" }
%"class.std::_Rb_tree.7" = type { %"struct.std::_Rb_tree<int, int, std::_Identity<int>, std::less<int>>::_Rb_tree_impl" }
%"struct.std::_Rb_tree<int, int, std::_Identity<int>, std::less<int>>::_Rb_tree_impl" = type { [8 x i8], %"struct.std::_Rb_tree_header" }
%"class.std::map" = type { %"class.std::_Rb_tree.12" }
%"class.std::_Rb_tree.12" = type { %"struct.std::_Rb_tree<std::__cxx11::basic_string<char>, std::pair<const std::__cxx11::basic_string<char>, std::__cxx11::basic_string<char>>, std::_Select1st<std::pair<const std::__cxx11::basic_string<char>, std::__cxx11::basic_string<char>>>, std::less<std::__cxx11::basic_string<char>>>::_Rb_tree_impl" }
%"struct.std::_Rb_tree<std::__cxx11::basic_string<char>, std::pair<const std::__cxx11::basic_string<char>, std::__cxx11::basic_string<char>>, std::_Select1st<std::pair<const std::__cxx11::basic_string<char>, std::__cxx11::basic_string<char>>>, std::less<std::__cxx11::basic_string<char>>>::_Rb_tree_impl" = type { [8 x i8], %"struct.std::_Rb_tree_header" }
%"class.std::vector.17" = type { %"struct.std::_Vector_base.18" }
%"struct.std::_Vector_base.18" = type { %"struct.std::_Vector_base<unsigned char, std::allocator<unsigned char>>::_Vector_impl" }
%"struct.std::_Vector_base<unsigned char, std::allocator<unsigned char>>::_Vector_impl" = type { %"struct.std::_Vector_base<unsigned char, std::allocator<unsigned char>>::_Vector_impl_data" }
%"struct.std::_Vector_base<unsigned char, std::allocator<unsigned char>>::_Vector_impl_data" = type { ptr, ptr, ptr }
%"class.zmq::atomic_counter_t" = type { %"struct.std::atomic.22", [4 x i8] }
%"struct.std::atomic.22" = type { %"struct.std::__atomic_base.23" }
%"struct.std::__atomic_base.23" = type { i32 }
%"class.std::set.24" = type { %"class.std::_Rb_tree.25" }
%"class.std::_Rb_tree.25" = type { %"struct.std::_Rb_tree<zmq::own_t *, zmq::own_t *, std::_Identity<zmq::own_t *>, std::less<zmq::own_t *>>::_Rb_tree_impl" }
%"struct.std::_Rb_tree<zmq::own_t *, zmq::own_t *, std::_Identity<zmq::own_t *>, std::less<zmq::own_t *>>::_Rb_tree_impl" = type { [8 x i8], %"struct.std::_Rb_tree_header" }
%"class.zmq::array_item_t.base" = type <{ ptr, i32 }>
%"struct.zmq::i_poll_events" = type { ptr }
%"struct.zmq::i_pipe_events" = type { ptr }
%"class.std::multimap" = type { %"class.std::_Rb_tree.30" }
%"class.std::_Rb_tree.30" = type { %"struct.std::_Rb_tree<std::__cxx11::basic_string<char>, std::pair<const std::__cxx11::basic_string<char>, std::pair<zmq::own_t *, zmq::pipe_t *>>, std::_Select1st<std::pair<const std::__cxx11::basic_string<char>, std::pair<zmq::own_t *, zmq::pipe_t *>>>, std::less<std::__cxx11::basic_string<char>>>::_Rb_tree_impl" }
%"struct.std::_Rb_tree<std::__cxx11::basic_string<char>, std::pair<const std::__cxx11::basic_string<char>, std::pair<zmq::own_t *, zmq::pipe_t *>>, std::_Select1st<std::pair<const std::__cxx11::basic_string<char>, std::pair<zmq::own_t *, zmq::pipe_t *>>>, std::less<std::__cxx11::basic_string<char>>>::_Rb_tree_impl" = type { [8 x i8], %"struct.std::_Rb_tree_header" }
%"class.zmq::socket_base_t::inprocs_t" = type { %"class.std::multimap.34" }
%"class.std::multimap.34" = type { %"class.std::_Rb_tree.35" }
%"class.std::_Rb_tree.35" = type { %"struct.std::_Rb_tree<std::__cxx11::basic_string<char>, std::pair<const std::__cxx11::basic_string<char>, zmq::pipe_t *>, std::_Select1st<std::pair<const std::__cxx11::basic_string<char>, zmq::pipe_t *>>, std::less<std::__cxx11::basic_string<char>>>::_Rb_tree_impl" }
%"struct.std::_Rb_tree<std::__cxx11::basic_string<char>, std::pair<const std::__cxx11::basic_string<char>, zmq::pipe_t *>, std::_Select1st<std::pair<const std::__cxx11::basic_string<char>, zmq::pipe_t *>>, std::less<std::__cxx11::basic_string<char>>>::_Rb_tree_impl" = type { [8 x i8], %"struct.std::_Rb_tree_header" }
%"class.zmq::array_t" = type { %"class.std::vector.39" }
%"class.std::vector.39" = type { %"struct.std::_Vector_base.40" }
%"struct.std::_Vector_base.40" = type { %"struct.std::_Vector_base<zmq::pipe_t *, std::allocator<zmq::pipe_t *>>::_Vector_impl" }
%"struct.std::_Vector_base<zmq::pipe_t *, std::allocator<zmq::pipe_t *>>::_Vector_impl" = type { %"struct.std::_Vector_base<zmq::pipe_t *, std::allocator<zmq::pipe_t *>>::_Vector_impl_data" }
%"struct.std::_Vector_base<zmq::pipe_t *, std::allocator<zmq::pipe_t *>>::_Vector_impl_data" = type { ptr, ptr, ptr }
%"class.zmq::clock_t" = type { i64, i64 }
%"class.std::__cxx11::basic_string" = type { %"struct.std::__cxx11::basic_string<char>::_Alloc_hider", i64, %union.anon }
%"struct.std::__cxx11::basic_string<char>::_Alloc_hider" = type { ptr }
%union.anon = type { i64, [8 x i8] }
%"class.zmq::mutex_t" = type <{ %union.pthread_mutex_t, %union.pthread_mutexattr_t, [4 x i8] }>
%union.pthread_mutex_t = type { %struct.__pthread_mutex_s }
%struct.__pthread_mutex_s = type { i32, i32, i32, i32, i32, i16, i16, %struct.__pthread_internal_list }
%struct.__pthread_internal_list = type { ptr, ptr }
%union.pthread_mutexattr_t = type { i32 }

; Function Attrs: mustprogress uwtable
define noundef zeroext i1 @_ZN3zmq9channel_t7xhas_inEv(ptr noundef nonnull align 8 dereferenceable(1840) %0) unnamed_addr #0 align 2 {
  %2 = alloca i1, align 1
  %3 = alloca ptr, align 8
  store ptr %0, ptr %3, align 8, !tbaa !3
  %4 = load ptr, ptr %3, align 8
  %5 = getelementptr inbounds nuw %"class.zmq::channel_t", ptr %4, i32 0, i32 1
  %6 = load ptr, ptr %5, align 8, !tbaa !14
  %7 = icmp ne ptr %6, null
  br i1 %7, label %9, label %8

8:                                                ; preds = %1
  store i1 false, ptr %2, align 1
  br label %13

9:                                                ; preds = %1
  %10 = getelementptr inbounds nuw %"class.zmq::channel_t", ptr %4, i32 0, i32 1
  %11 = load ptr, ptr %10, align 8, !tbaa !14
  %12 = call noundef zeroext i1 @_ZN3zmq6pipe_t10check_readEv(ptr noundef nonnull align 8 dereferenceable(328) %11)
  store i1 %12, ptr %2, align 1
  br label %13

13:                                               ; preds = %9, %8
  %14 = load i1, ptr %2, align 1
  ret i1 %14
}